target datalayout = "e-m:e-p270:32:32-p271:32:32-p272:64:64-i64:64-i128:128-f80:128-n8:16:32:64-S128"
target triple = "x86_64-pc-linux-gnu"

%struct.RelationData = type { %struct.RelFileLocator, ptr, i32, i32, i8, i8, i8, i8, i8, i32, i32, i32, i32, ptr, ptr, i32, %struct.LockInfoData, ptr, ptr, ptr, ptr, ptr, i8, ptr, ptr, ptr, ptr, ptr, ptr, i32, ptr, i8, ptr, ptr, i32, i8, i32, ptr, i8, ptr, ptr, ptr, ptr, ptr, ptr, ptr, i32, ptr, ptr, ptr, ptr, ptr, ptr, ptr, ptr, ptr, ptr, ptr, ptr, ptr, ptr, ptr, ptr, ptr, ptr, ptr, i32, i8, ptr }
%struct.RelFileLocator = type { i32, i32, i32 }
%struct.LockInfoData = type { %struct.LockRelId }
%struct.LockRelId = type { i32, i32 }
%struct.LOCKTAG = type { i32, i32, i32, i16, i8, i8 }

; Function Attrs: nounwind uwtable
define dso_local zeroext i1 @ConditionalLockPage(ptr noundef %0, i32 noundef %1, i32 noundef %2) #0 {
  %4 = alloca ptr, align 8
  %5 = alloca i32, align 4
  %6 = alloca i32, align 4
  %7 = alloca %struct.LOCKTAG, align 4
  store ptr %0, ptr %4, align 8
  store i32 %1, ptr %5, align 4
  store i32 %2, ptr %6, align 4
  call void @llvm.lifetime.start.p0(i64 16, ptr %7) #6
  %8 = load ptr, ptr %4, align 8
  %9 = getelementptr inbounds nuw %struct.RelationData, ptr %8, i32 0, i32 16
  %10 = getelementptr inbounds nuw %struct.LockInfoData, ptr %9, i32 0, i32 0
  %11 = getelementptr inbounds nuw %struct.LockRelId, ptr %10, i32 0, i32 1
  %12 = load i32, ptr %11, align 4
  %13 = getelementptr inbounds nuw %struct.LOCKTAG, ptr %7, i32 0, i32 0
  store i32 %12, ptr %13, align 4
  %14 = load ptr, ptr %4, align 8
  %15 = getelementptr inbounds nuw %struct.RelationData, ptr %14, i32 0, i32 16
  %16 = getelementptr inbounds nuw %struct.LockInfoData, ptr %15, i32 0, i32 0
  %17 = getelementptr inbounds nuw %struct.LockRelId, ptr %16, i32 0, i32 0
  %18 = load i32, ptr %17, align 4
  %19 = getelementptr inbounds nuw %struct.LOCKTAG, ptr %7, i32 0, i32 1
  store i32 %18, ptr %19, align 4
  %20 = load i32, ptr %5, align 4
  %21 = getelementptr inbounds nuw %struct.LOCKTAG, ptr %7, i32 0, i32 2
  store i32 %20, ptr %21, align 4
  %22 = getelementptr inbounds nuw %struct.LOCKTAG, ptr %7, i32 0, i32 3
  store i16 0, ptr %22, align 4
  %23 = getelementptr inbounds nuw %struct.LOCKTAG, ptr %7, i32 0, i32 4
  store i8 3, ptr %23, align 2
  %24 = getelementptr inbounds nuw %struct.LOCKTAG, ptr %7, i32 0, i32 5
  store i8 1, ptr %24, align 1
  %25 = load i32, ptr %6, align 4
  %26 = call i32 @LockAcquire(ptr noundef %7, i32 noundef %25, i1 noundef zeroext false, i1 noundef zeroext true)
  %27 = icmp ne i32 %26, 0
  call void @llvm.lifetime.end.p0(i64 16, ptr %7) #6
  ret i1 %27
}